target datalayout = "e-m:e-p270:32:32-p271:32:32-p272:64:64-i64:64-i128:128-f80:128-n8:16:32:64-S128"
target triple = "x86_64-pc-linux-gnu"

%struct._ext_toolbar_t = type { i32, ptr, i32, i32, ptr, ptr, ptr, ptr, i32, i32, i32, ptr, ptr, ptr }

; Function Attrs: mustprogress uwtable
define void @_ZN29AdditionalToolbarWidgetAction15onButtonClickedEv(ptr noundef nonnull align 8 dereferenceable(24) %0) #0 align 2 {
  %2 = alloca ptr, align 8
  %3 = alloca ptr, align 8
  store ptr %0, ptr %2, align 8
  %4 = load ptr, ptr %2, align 8
  %5 = call noundef ptr @_ZNK7QObject6senderEv(ptr noundef nonnull align 8 dereferenceable(16) %4)
  %6 = call noundef ptr @_ZN29AdditionalToolbarWidgetAction28extractToolbarItemFromObjectEP7QObject(ptr noundef nonnull align 8 dereferenceable(24) %4, ptr noundef %5)
  store ptr %6, ptr %3, align 8
  %7 = load ptr, ptr %3, align 8
  %8 = icmp ne ptr %7, null
  br i1 %8, label %10, label %9

9:                                                ; preds = %1
  br label %18

10:                                               ; preds = %1
  %11 = load ptr, ptr %3, align 8
  %12 = getelementptr inbounds %struct._ext_toolbar_t, ptr %11, i32 0, i32 13
  %13 = load ptr, ptr %12, align 8
  %14 = load ptr, ptr %3, align 8
  %15 = load ptr, ptr %3, align 8
  %16 = getelementptr inbounds %struct._ext_toolbar_t, ptr %15, i32 0, i32 7
  %17 = load ptr, ptr %16, align 8
  call void %13(ptr noundef %14, ptr noundef null, ptr noundef %17)
  br label %18

18:                                               ; preds = %10, %9
  ret void
}