; Function Attrs: mustprogress uwtable
define void @_ZN29AdditionalToolbarWidgetAction15onButtonClickedEv(ptr noundef nonnull align 8 dereferenceable(24) %0) #0 align 2 {
  %2 = tail call noundef ptr @_ZNK7QObject6senderEv(ptr noundef nonnull align 8 dereferenceable(16) %0)
  %3 = tail call noundef ptr @_ZN29AdditionalToolbarWidgetAction28extractToolbarItemFromObjectEP7QObject(ptr nonnull align 8 poison, ptr noundef %2)
  %.not = icmp eq ptr %3, null
  br i1 %.not, label %9, label %4

4:                                                ; preds = %1
  %5 = getelementptr inbounds i8, ptr %3, i64 88
  %6 = load ptr, ptr %5, align 8
  %7 = getelementptr inbounds i8, ptr %3, i64 48
  %8 = load ptr, ptr %7, align 8
  tail call void %6(ptr noundef nonnull %3, ptr noundef null, ptr noundef %8)
  br label %9

9:                                                ; preds = %1, %4
  ret void
}